; Function Attrs: mustprogress nounwind uwtable
define hidden void @_ZN9ZStatHeap5statsEv(ptr dead_on_unwind noalias nocapture writable writeonly sret(%struct.ZStatHeapStats) align 8 %0, ptr noundef nonnull align 8 dereferenceable(488) %1) local_unnamed_addr #0 align 2 {
_ZN7ZLockerI5ZLockED2Ev.exit:
  %2 = tail call i32 @pthread_mutex_lock(ptr noundef nonnull %1) #20
  %3 = getelementptr inbounds i8, ptr %1, i64 160
  %4 = load i64, ptr %3, align 8
  store i64 %4, ptr %0, align 8
  %5 = getelementptr inbounds i8, ptr %0, i64 8
  %6 = getelementptr inbounds i8, ptr %1, i64 328
  %7 = load i64, ptr %6, align 8
  store i64 %7, ptr %5, align 8
  %8 = getelementptr inbounds i8, ptr %0, i64 16
  %9 = getelementptr inbounds i8, ptr %1, i64 416
  %10 = tail call noundef double @_ZNK6AbsSeq4davgEv(ptr noundef nonnull align 8 dereferenceable(56) %9) #20
  %11 = fptoui double %10 to i64
  store i64 %11, ptr %8, align 8
  %12 = tail call i32 @pthread_mutex_unlock(ptr noundef nonnull %1) #20
  ret void
}